target datalayout = "e-m:e-p270:32:32-p271:32:32-p272:64:64-i64:64-i128:128-f80:128-n8:16:32:64-S128"
target triple = "x86_64-pc-linux-gnu"

%struct.blake2s_state__ = type { [8 x i32], [2 x i32], [2 x i32], [64 x i8], i64, i64, i8 }
%struct.blake2s_param__ = type { i8, i8, i8, i8, i32, i32, i16, i8, i8, [8 x i8], [8 x i8] }

@blake2s_IV = internal constant [8 x i32] [i32 1779033703, i32 -1150833019, i32 1013904242, i32 -1521486534, i32 1359893119, i32 -1694144372, i32 528734635, i32 1541459225], align 16

; Function Attrs: inlinehint nounwind uwtable
define internal i32 @load32(ptr noundef %0) #2 {
  %2 = alloca ptr, align 8
  %3 = alloca ptr, align 8
  store ptr %0, ptr %2, align 8, !tbaa !25
  call void @llvm.lifetime.start.p0(i64 8, ptr %3) #6
  %4 = load ptr, ptr %2, align 8, !tbaa !25
  store ptr %4, ptr %3, align 8, !tbaa !11
  %5 = load ptr, ptr %3, align 8, !tbaa !11
  %6 = getelementptr inbounds i8, ptr %5, i64 0
  %7 = load i8, ptr %6, align 1, !tbaa !26
  %8 = zext i8 %7 to i32
  %9 = shl i32 %8, 0
  %10 = load ptr, ptr %3, align 8, !tbaa !11
  %11 = getelementptr inbounds i8, ptr %10, i64 1
  %12 = load i8, ptr %11, align 1, !tbaa !26
  %13 = zext i8 %12 to i32
  %14 = shl i32 %13, 8
  %15 = or i32 %9, %14
  %16 = load ptr, ptr %3, align 8, !tbaa !11
  %17 = getelementptr inbounds i8, ptr %16, i64 2
  %18 = load i8, ptr %17, align 1, !tbaa !26
  %19 = zext i8 %18 to i32
  %20 = shl i32 %19, 16
  %21 = or i32 %15, %20
  %22 = load ptr, ptr %3, align 8, !tbaa !11
  %23 = getelementptr inbounds i8, ptr %22, i64 3
  %24 = load i8, ptr %23, align 1, !tbaa !26
  %25 = zext i8 %24 to i32
  %26 = shl i32 %25, 24
  %27 = or i32 %21, %26
  call void @llvm.lifetime.end.p0(i64 8, ptr %3) #6
  ret i32 %27
}

; Function Attrs: nounwind uwtable
define internal void @blake2s_init0(ptr noundef %0) #0 {
  %2 = alloca ptr, align 8
  %3 = alloca i64, align 8
  store ptr %0, ptr %2, align 8, !tbaa !4
  call void @llvm.lifetime.start.p0(i64 8, ptr %3) #6
  %4 = load ptr, ptr %2, align 8, !tbaa !4
  call void @llvm.memset.p0.i64(ptr align 8 %4, i8 0, i64 136, i1 false)
  store i64 0, ptr %3, align 8, !tbaa !13
  br label %5

5:                                                ; preds = %16, %1
  %6 = load i64, ptr %3, align 8, !tbaa !13
  %7 = icmp ult i64 %6, 8
  br i1 %7, label %8, label %19

8:                                                ; preds = %5
  %9 = load i64, ptr %3, align 8, !tbaa !13
  %10 = getelementptr inbounds nuw [8 x i32], ptr @blake2s_IV, i64 0, i64 %9
  %11 = load i32, ptr %10, align 4, !tbaa !15
  %12 = load ptr, ptr %2, align 8, !tbaa !4
  %13 = getelementptr inbounds nuw %struct.blake2s_state__, ptr %12, i32 0, i32 0
  %14 = load i64, ptr %3, align 8, !tbaa !13
  %15 = getelementptr inbounds nuw [8 x i32], ptr %13, i64 0, i64 %14
  store i32 %11, ptr %15, align 4, !tbaa !15
  br label %16

16:                                               ; preds = %8
  %17 = load i64, ptr %3, align 8, !tbaa !13
  %18 = add i64 %17, 1
  store i64 %18, ptr %3, align 8, !tbaa !13
  br label %5, !llvm.loop !24

19:                                               ; preds = %5
  call void @llvm.lifetime.end.p0(i64 8, ptr %3) #6
  ret void
}

; Function Attrs: nounwind uwtable
define dso_local i32 @blake2s_init_param(ptr noundef %0, ptr noundef %1) #0 {
  %3 = alloca ptr, align 8
  %4 = alloca ptr, align 8
  %5 = alloca ptr, align 8
  %6 = alloca i64, align 8
  store ptr %0, ptr %3, align 8, !tbaa !4
  store ptr %1, ptr %4, align 8, !tbaa !9
  call void @llvm.lifetime.start.p0(i64 8, ptr %5) #6
  %7 = load ptr, ptr %4, align 8, !tbaa !9
  store ptr %7, ptr %5, align 8, !tbaa !11
  call void @llvm.lifetime.start.p0(i64 8, ptr %6) #6
  %8 = load ptr, ptr %3, align 8, !tbaa !4
  call void @blake2s_init0(ptr noundef %8)
  store i64 0, ptr %6, align 8, !tbaa !13
  br label %9

9:                                                ; preds = %24, %2
  %10 = load i64, ptr %6, align 8, !tbaa !13
  %11 = icmp ult i64 %10, 8
  br i1 %11, label %12, label %27

12:                                               ; preds = %9
  %13 = load ptr, ptr %5, align 8, !tbaa !11
  %14 = load i64, ptr %6, align 8, !tbaa !13
  %15 = mul i64 %14, 4
  %16 = getelementptr inbounds nuw i8, ptr %13, i64 %15
  %17 = call i32 @load32(ptr noundef %16)
  %18 = load ptr, ptr %3, align 8, !tbaa !4
  %19 = getelementptr inbounds nuw %struct.blake2s_state__, ptr %18, i32 0, i32 0
  %20 = load i64, ptr %6, align 8, !tbaa !13
  %21 = getelementptr inbounds nuw [8 x i32], ptr %19, i64 0, i64 %20
  %22 = load i32, ptr %21, align 4, !tbaa !15
  %23 = xor i32 %22, %17
  store i32 %23, ptr %21, align 4, !tbaa !15
  br label %24

24:                                               ; preds = %12
  %25 = load i64, ptr %6, align 8, !tbaa !13
  %26 = add i64 %25, 1
  store i64 %26, ptr %6, align 8, !tbaa !13
  br label %9, !llvm.loop !17

27:                                               ; preds = %9
  %28 = load ptr, ptr %4, align 8, !tbaa !9
  %29 = getelementptr inbounds nuw %struct.blake2s_param__, ptr %28, i32 0, i32 0
  %30 = load i8, ptr %29, align 1, !tbaa !19
  %31 = zext i8 %30 to i64
  %32 = load ptr, ptr %3, align 8, !tbaa !4
  %33 = getelementptr inbounds nuw %struct.blake2s_state__, ptr %32, i32 0, i32 5
  store i64 %31, ptr %33, align 8, !tbaa !22
  call void @llvm.lifetime.end.p0(i64 8, ptr %6) #6
  call void @llvm.lifetime.end.p0(i64 8, ptr %5) #6
  ret i32 0
}

; Function Attrs: inlinehint nounwind uwtable
define internal void @store16(ptr noundef %0, i16 noundef zeroext %1) #2 {
  %3 = alloca ptr, align 8
  %4 = alloca i16, align 2
  %5 = alloca ptr, align 8
  store ptr %0, ptr %3, align 8, !tbaa !25
  store i16 %1, ptr %4, align 2, !tbaa !32
  call void @llvm.lifetime.start.p0(i64 8, ptr %5) #6
  %6 = load ptr, ptr %3, align 8, !tbaa !25
  store ptr %6, ptr %5, align 8, !tbaa !11
  %7 = load i16, ptr %4, align 2, !tbaa !32
  %8 = trunc i16 %7 to i8
  %9 = load ptr, ptr %5, align 8, !tbaa !11
  %10 = getelementptr inbounds nuw i8, ptr %9, i32 1
  store ptr %10, ptr %5, align 8, !tbaa !11
  store i8 %8, ptr %9, align 1, !tbaa !26
  %11 = load i16, ptr %4, align 2, !tbaa !32
  %12 = zext i16 %11 to i32
  %13 = ashr i32 %12, 8
  %14 = trunc i32 %13 to i16
  store i16 %14, ptr %4, align 2, !tbaa !32
  %15 = load i16, ptr %4, align 2, !tbaa !32
  %16 = trunc i16 %15 to i8
  %17 = load ptr, ptr %5, align 8, !tbaa !11
  %18 = getelementptr inbounds nuw i8, ptr %17, i32 1
  store ptr %18, ptr %5, align 8, !tbaa !11
  store i8 %16, ptr %17, align 1, !tbaa !26
  call void @llvm.lifetime.end.p0(i64 8, ptr %5) #6
  ret void
}

; Function Attrs: inlinehint nounwind uwtable
define internal void @store32(ptr noundef %0, i32 noundef %1) #2 {
  %3 = alloca ptr, align 8
  %4 = alloca i32, align 4
  %5 = alloca ptr, align 8
  store ptr %0, ptr %3, align 8, !tbaa !25
  store i32 %1, ptr %4, align 4, !tbaa !15
  call void @llvm.lifetime.start.p0(i64 8, ptr %5) #6
  %6 = load ptr, ptr %3, align 8, !tbaa !25
  store ptr %6, ptr %5, align 8, !tbaa !11
  %7 = load i32, ptr %4, align 4, !tbaa !15
  %8 = lshr i32 %7, 0
  %9 = trunc i32 %8 to i8
  %10 = load ptr, ptr %5, align 8, !tbaa !11
  %11 = getelementptr inbounds i8, ptr %10, i64 0
  store i8 %9, ptr %11, align 1, !tbaa !26
  %12 = load i32, ptr %4, align 4, !tbaa !15
  %13 = lshr i32 %12, 8
  %14 = trunc i32 %13 to i8
  %15 = load ptr, ptr %5, align 8, !tbaa !11
  %16 = getelementptr inbounds i8, ptr %15, i64 1
  store i8 %14, ptr %16, align 1, !tbaa !26
  %17 = load i32, ptr %4, align 4, !tbaa !15
  %18 = lshr i32 %17, 16
  %19 = trunc i32 %18 to i8
  %20 = load ptr, ptr %5, align 8, !tbaa !11
  %21 = getelementptr inbounds i8, ptr %20, i64 2
  store i8 %19, ptr %21, align 1, !tbaa !26
  %22 = load i32, ptr %4, align 4, !tbaa !15
  %23 = lshr i32 %22, 24
  %24 = trunc i32 %23 to i8
  %25 = load ptr, ptr %5, align 8, !tbaa !11
  %26 = getelementptr inbounds i8, ptr %25, i64 3
  store i8 %24, ptr %26, align 1, !tbaa !26
  call void @llvm.lifetime.end.p0(i64 8, ptr %5) #6
  ret void
}

; Function Attrs: nounwind uwtable
define dso_local i32 @blake2s_init(ptr noundef %0, i64 noundef %1) #0 {
  %3 = alloca i32, align 4
  %4 = alloca ptr, align 8
  %5 = alloca i64, align 8
  %6 = alloca [1 x %struct.blake2s_param__], align 16
  %7 = alloca i32, align 4
  store ptr %0, ptr %4, align 8, !tbaa !4
  store i64 %1, ptr %5, align 8, !tbaa !13
  call void @llvm.lifetime.start.p0(i64 32, ptr %6) #6
  %8 = load i64, ptr %5, align 8, !tbaa !13
  %9 = icmp ne i64 %8, 0
  br i1 %9, label %10, label %13

10:                                               ; preds = %2
  %11 = load i64, ptr %5, align 8, !tbaa !13
  %12 = icmp ugt i64 %11, 32
  br i1 %12, label %13, label %14

13:                                               ; preds = %10, %2
  store i32 -1, ptr %3, align 4
  store i32 1, ptr %7, align 4
  br label %44

14:                                               ; preds = %10
  %15 = load i64, ptr %5, align 8, !tbaa !13
  %16 = trunc i64 %15 to i8
  %17 = getelementptr inbounds [1 x %struct.blake2s_param__], ptr %6, i64 0, i64 0
  %18 = getelementptr inbounds nuw %struct.blake2s_param__, ptr %17, i32 0, i32 0
  store i8 %16, ptr %18, align 16, !tbaa !19
  %19 = getelementptr inbounds [1 x %struct.blake2s_param__], ptr %6, i64 0, i64 0
  %20 = getelementptr inbounds nuw %struct.blake2s_param__, ptr %19, i32 0, i32 1
  store i8 0, ptr %20, align 1, !tbaa !27
  %21 = getelementptr inbounds [1 x %struct.blake2s_param__], ptr %6, i64 0, i64 0
  %22 = getelementptr inbounds nuw %struct.blake2s_param__, ptr %21, i32 0, i32 2
  store i8 1, ptr %22, align 2, !tbaa !28
  %23 = getelementptr inbounds [1 x %struct.blake2s_param__], ptr %6, i64 0, i64 0
  %24 = getelementptr inbounds nuw %struct.blake2s_param__, ptr %23, i32 0, i32 3
  store i8 1, ptr %24, align 1, !tbaa !29
  %25 = getelementptr inbounds [1 x %struct.blake2s_param__], ptr %6, i64 0, i64 0
  %26 = getelementptr inbounds nuw %struct.blake2s_param__, ptr %25, i32 0, i32 4
  call void @store32(ptr noundef %26, i32 noundef 0)
  %27 = getelementptr inbounds [1 x %struct.blake2s_param__], ptr %6, i64 0, i64 0
  %28 = getelementptr inbounds nuw %struct.blake2s_param__, ptr %27, i32 0, i32 5
  call void @store32(ptr noundef %28, i32 noundef 0)
  %29 = getelementptr inbounds [1 x %struct.blake2s_param__], ptr %6, i64 0, i64 0
  %30 = getelementptr inbounds nuw %struct.blake2s_param__, ptr %29, i32 0, i32 6
  call void @store16(ptr noundef %30, i16 noundef zeroext 0)
  %31 = getelementptr inbounds [1 x %struct.blake2s_param__], ptr %6, i64 0, i64 0
  %32 = getelementptr inbounds nuw %struct.blake2s_param__, ptr %31, i32 0, i32 7
  store i8 0, ptr %32, align 2, !tbaa !30
  %33 = getelementptr inbounds [1 x %struct.blake2s_param__], ptr %6, i64 0, i64 0
  %34 = getelementptr inbounds nuw %struct.blake2s_param__, ptr %33, i32 0, i32 8
  store i8 0, ptr %34, align 1, !tbaa !31
  %35 = getelementptr inbounds [1 x %struct.blake2s_param__], ptr %6, i64 0, i64 0
  %36 = getelementptr inbounds nuw %struct.blake2s_param__, ptr %35, i32 0, i32 9
  %37 = getelementptr inbounds [8 x i8], ptr %36, i64 0, i64 0
  call void @llvm.memset.p0.i64(ptr align 16 %37, i8 0, i64 8, i1 false)
  %38 = getelementptr inbounds [1 x %struct.blake2s_param__], ptr %6, i64 0, i64 0
  %39 = getelementptr inbounds nuw %struct.blake2s_param__, ptr %38, i32 0, i32 10
  %40 = getelementptr inbounds [8 x i8], ptr %39, i64 0, i64 0
  call void @llvm.memset.p0.i64(ptr align 8 %40, i8 0, i64 8, i1 false)
  %41 = load ptr, ptr %4, align 8, !tbaa !4
  %42 = getelementptr inbounds [1 x %struct.blake2s_param__], ptr %6, i64 0, i64 0
  %43 = call i32 @blake2s_init_param(ptr noundef %41, ptr noundef %42)
  store i32 %43, ptr %3, align 4
  store i32 1, ptr %7, align 4
  br label %44

44:                                               ; preds = %14, %13
  call void @llvm.lifetime.end.p0(i64 32, ptr %6) #6
  %45 = load i32, ptr %3, align 4
  ret i32 %45
}