; Function Attrs: nofree norecurse nosync nounwind memory(argmem: readwrite) uwtable
define dso_local range(i32 -1, 1) i32 @blake2s_init(ptr noundef captures(none) %0, i64 noundef %1) local_unnamed_addr #0 {
  %3 = alloca [1 x %struct.blake2s_param__], align 16
  call void @llvm.lifetime.start.p0(i64 32, ptr nonnull %3) #7
  %4 = add i64 %1, -33
  %or.cond = icmp ult i64 %4, -32
  br i1 %or.cond, label %21, label %5

5:                                                ; preds = %2
  %6 = trunc nuw nsw i64 %1 to i8
  store i8 %6, ptr %3, align 16, !tbaa !10
  %7 = getelementptr inbounds nuw i8, ptr %3, i64 1
  store i8 0, ptr %7, align 1, !tbaa !16
  %8 = getelementptr inbounds nuw i8, ptr %3, i64 2
  store i8 1, ptr %8, align 2, !tbaa !17
  %9 = getelementptr inbounds nuw i8, ptr %3, i64 3
  store i8 1, ptr %9, align 1, !tbaa !18
  %10 = getelementptr inbounds nuw i8, ptr %3, i64 4
  %11 = getelementptr i8, ptr %0, i64 32
  call void @llvm.memset.p0.i64(ptr noundef nonnull align 4 dereferenceable(28) %10, i8 0, i64 28, i1 false)
  tail call void @llvm.memset.p0.i64(ptr noundef nonnull align 8 dereferenceable(104) %11, i8 0, i64 104, i1 false)
  tail call void @llvm.memcpy.p0.p0.i64(ptr noundef nonnull align 4 dereferenceable(32) %0, ptr noundef nonnull align 16 dereferenceable(32) @blake2s_IV, i64 32, i1 false), !tbaa !4
  br label %12

12:                                               ; preds = %12, %5
  %.09.i = phi i64 [ 0, %5 ], [ %19, %12 ]
  %13 = shl nuw nsw i64 %.09.i, 2
  %14 = getelementptr inbounds nuw i8, ptr %3, i64 %13
  %15 = load i32, ptr %14, align 4
  %16 = getelementptr inbounds nuw [8 x i32], ptr %0, i64 0, i64 %.09.i
  %17 = load i32, ptr %16, align 4, !tbaa !4
  %18 = xor i32 %17, %15
  store i32 %18, ptr %16, align 4, !tbaa !4
  %19 = add nuw nsw i64 %.09.i, 1
  %exitcond.not.i = icmp eq i64 %19, 8
  br i1 %exitcond.not.i, label %blake2s_init_param.exit, label %12, !llvm.loop !8

blake2s_init_param.exit:                          ; preds = %12
  %20 = getelementptr inbounds nuw i8, ptr %0, i64 120
  store i64 %1, ptr %20, align 8, !tbaa !13
  br label %21

21:                                               ; preds = %2, %blake2s_init_param.exit
  %.0 = phi i32 [ 0, %blake2s_init_param.exit ], [ -1, %2 ]
  call void @llvm.lifetime.end.p0(i64 32, ptr nonnull %3) #7
  ret i32 %.0
}